target datalayout = "e-m:e-p270:32:32-p271:32:32-p272:64:64-i64:64-i128:128-f80:128-n8:16:32:64-S128"
target triple = "x86_64-unknown-linux-gnu"

%class.btGeneric6DofSpring2Constraint = type <{ %class.btTypedConstraint, %class.btTransform, %class.btTransform, [3 x %class.btJacobianEntry], [3 x %class.btJacobianEntry], %class.btTranslationalLimitMotor2, [3 x %class.btRotationalLimitMotor2], i32, %class.btTransform, %class.btTransform, %class.btVector3, [3 x %class.btVector3], %class.btVector3, float, float, i8, [3 x i8], i32, [4 x i8] }>
%class.btTypedConstraint = type { ptr, %struct.btTypedObject, i32, %union.anon.0, float, i8, i8, i32, ptr, ptr, float, float, ptr }
%struct.btTypedObject = type { i32 }
%union.anon.0 = type { ptr }
%class.btJacobianEntry = type { %class.btVector3, %class.btVector3, %class.btVector3, %class.btVector3, %class.btVector3, float }
%class.btTranslationalLimitMotor2 = type { %class.btVector3, %class.btVector3, %class.btVector3, %class.btVector3, %class.btVector3, %class.btVector3, %class.btVector3, [3 x i8], [3 x i8], [3 x i8], %class.btVector3, %class.btVector3, [3 x i8], %class.btVector3, [3 x i8], %class.btVector3, %class.btVector3, %class.btVector3, %class.btVector3, %class.btVector3, %class.btVector3, [3 x i32] }
%class.btRotationalLimitMotor2 = type { float, float, float, float, float, float, float, i8, float, float, i8, float, i8, float, i8, float, i8, float, float, float, float, i32 }
%class.btTransform = type { %class.btMatrix3x3, %class.btVector3 }
%class.btMatrix3x3 = type { [3 x %class.btVector3] }
%class.btVector3 = type { [4 x float] }

; Function Attrs: mustprogress nounwind uwtable
define dso_local void @_ZN30btGeneric6DofSpring2Constraint11enableMotorEib(ptr noundef nonnull align 8 dereferenceable(1484) %this, i32 noundef %index, i1 noundef zeroext %onOff) #1 align 2 {
entry:
  %this.addr = alloca ptr, align 8
  %index.addr = alloca i32, align 4
  %onOff.addr = alloca i8, align 1
  store ptr %this, ptr %this.addr, align 8
  store i32 %index, ptr %index.addr, align 4
  %frombool = zext i1 %onOff to i8
  store i8 %frombool, ptr %onOff.addr, align 1
  %this1 = load ptr, ptr %this.addr, align 8
  %0 = load i32, ptr %index.addr, align 4
  %cmp = icmp slt i32 %0, 3
  br i1 %cmp, label %if.then, label %if.else

if.then:                                          ; preds = %entry
  %1 = load i8, ptr %onOff.addr, align 1
  %tobool = trunc i8 %1 to i1
  %m_linearLimits = getelementptr inbounds %class.btGeneric6DofSpring2Constraint, ptr %this1, i32 0, i32 5
  %m_enableMotor = getelementptr inbounds %class.btTranslationalLimitMotor2, ptr %m_linearLimits, i32 0, i32 7
  %2 = load i32, ptr %index.addr, align 4
  %idxprom = sext i32 %2 to i64
  %arrayidx = getelementptr inbounds [3 x i8], ptr %m_enableMotor, i64 0, i64 %idxprom
  %frombool2 = zext i1 %tobool to i8
  store i8 %frombool2, ptr %arrayidx, align 1
  br label %if.end

if.else:                                          ; preds = %entry
  %3 = load i8, ptr %onOff.addr, align 1
  %tobool3 = trunc i8 %3 to i1
  %m_angularLimits = getelementptr inbounds %class.btGeneric6DofSpring2Constraint, ptr %this1, i32 0, i32 6
  %4 = load i32, ptr %index.addr, align 4
  %sub = sub nsw i32 %4, 3
  %idxprom4 = sext i32 %sub to i64
  %arrayidx5 = getelementptr inbounds [3 x %class.btRotationalLimitMotor2], ptr %m_angularLimits, i64 0, i64 %idxprom4
  %m_enableMotor6 = getelementptr inbounds %class.btRotationalLimitMotor2, ptr %arrayidx5, i32 0, i32 7
  %frombool7 = zext i1 %tobool3 to i8
  store i8 %frombool7, ptr %m_enableMotor6, align 4
  br label %if.end

if.end:                                           ; preds = %if.else, %if.then
  ret void
}